; Function Attrs: null_pointer_is_valid sspstrong uwtable
define internal void @bssmap_block(ptr noundef %0, ptr noundef %1, ptr noundef %2, i32 noundef %3, i32 noundef %4) #1 {
  %6 = icmp sgt i32 %4, 0
  br i1 %6, label %7, label %13

7:                                                ; preds = %5
  %8 = tail call zeroext i16 @elem_tv(ptr noundef %0, ptr noundef %1, ptr noundef %2, i8 noundef zeroext 1, i32 noundef 0, i32 noundef 1, i32 noundef %3, ptr noundef null)
  %.not = icmp eq i16 %8, 0
  br i1 %.not, label %13, label %9

9:                                                ; preds = %7
  %10 = zext i16 %8 to i32
  %11 = add i32 %3, %10
  %12 = sub nsw i32 %4, %10
  br label %16

13:                                               ; preds = %7, %5
  %14 = tail call ptr @get_gsm_a_msg_string(i32 noundef 0, i32 noundef 1)
  %15 = tail call ptr (ptr, ptr, ptr, ptr, i32, i32, ptr, ...) @proto_tree_add_expert_format(ptr noundef %1, ptr noundef %2, ptr noundef nonnull @ei_gsm_a_bssmap_missing_mandatory_element, ptr noundef %0, i32 noundef %3, i32 noundef 0, ptr noundef nonnull @.str.139, i32 noundef 1, ptr noundef %14, ptr noundef nonnull @.str.137)
  br label %16

16:                                               ; preds = %13, %9
  %.045 = phi i32 [ %11, %9 ], [ %3, %13 ]
  %.0 = phi i32 [ %12, %9 ], [ %4, %13 ]
  %17 = icmp sgt i32 %.0, 0
  br i1 %17, label %18, label %24

18:                                               ; preds = %16
  %19 = tail call zeroext i16 @elem_tlv(ptr noundef %0, ptr noundef %1, ptr noundef %2, i8 noundef zeroext 4, i32 noundef 0, i32 noundef 4, i32 noundef %.045, i32 noundef %.0, ptr noundef null)
  %.not52 = icmp eq i16 %19, 0
  br i1 %.not52, label %24, label %20

20:                                               ; preds = %18
  %21 = zext i16 %19 to i32
  %22 = add i32 %.045, %21
  %23 = sub nsw i32 %.0, %21
  br label %27

24:                                               ; preds = %18, %16
  %25 = tail call ptr @get_gsm_a_msg_string(i32 noundef 0, i32 noundef 4)
  %26 = tail call ptr (ptr, ptr, ptr, ptr, i32, i32, ptr, ...) @proto_tree_add_expert_format(ptr noundef %1, ptr noundef %2, ptr noundef nonnull @ei_gsm_a_bssmap_missing_mandatory_element, ptr noundef %0, i32 noundef %.045, i32 noundef 0, ptr noundef nonnull @.str.139, i32 noundef 4, ptr noundef %25, ptr noundef nonnull @.str.137)
  br label %27

27:                                               ; preds = %24, %20
  %.146 = phi i32 [ %22, %20 ], [ %.045, %24 ]
  %.1 = phi i32 [ %23, %20 ], [ %.0, %24 ]
  %28 = icmp slt i32 %.1, 1
  br i1 %28, label %36, label %29

29:                                               ; preds = %27
  %30 = tail call zeroext i16 @elem_t(ptr noundef %0, ptr noundef %1, ptr noundef %2, i8 noundef zeroext 54, i32 noundef 0, i32 noundef 54, i32 noundef %.146, ptr noundef null)
  %31 = zext i16 %30 to i32
  %.not54 = icmp eq i32 %.1, %31
  br i1 %.not54, label %36, label %32

32:                                               ; preds = %29
  %33 = sub nsw i32 %.1, %31
  %34 = add i32 %.146, %31
  %35 = tail call ptr @proto_tree_add_expert(ptr noundef %1, ptr noundef %2, ptr noundef nonnull @ei_gsm_a_bssmap_extraneous_data, ptr noundef %0, i32 noundef %34, i32 noundef %33)
  br label %36

36:                                               ; preds = %29, %32, %27
  ret void
}